target datalayout = "e-m:e-p270:32:32-p271:32:32-p272:64:64-i64:64-i128:128-f80:128-n8:16:32:64-S128"
target triple = "x86_64-pc-linux-gnu"

%struct.asn1_type_st = type { i32, %union.anon.0 }
%union.anon.0 = type { ptr }
%struct.asn1_string_st = type { i32, i32, ptr, i64 }

@.str = private unnamed_addr constant [36 x i8] c"../openssl/crypto/pkcs12/p12_kiss.c\00", align 1

; Function Attrs: inlinehint nounwind uwtable
define internal ptr @ossl_check_X509_type(ptr noundef %0) #3 {
  %2 = alloca ptr, align 8
  store ptr %0, ptr %2, align 8, !tbaa !18
  %3 = load ptr, ptr %2, align 8, !tbaa !18
  ret ptr %3
}

; Function Attrs: inlinehint nounwind uwtable
define internal ptr @ossl_check_X509_sk_type(ptr noundef %0) #3 {
  %2 = alloca ptr, align 8
  store ptr %0, ptr %2, align 8, !tbaa !16
  %3 = load ptr, ptr %2, align 8, !tbaa !16
  ret ptr %3
}

; Function Attrs: nounwind uwtable
define internal i32 @parse_bag(ptr noundef %0, ptr noundef %1, i32 noundef %2, ptr noundef %3, ptr noundef %4, ptr noundef %5, ptr noundef %6) #0 {
  %8 = alloca i32, align 4
  %9 = alloca ptr, align 8
  %10 = alloca ptr, align 8
  %11 = alloca i32, align 4
  %12 = alloca ptr, align 8
  %13 = alloca ptr, align 8
  %14 = alloca ptr, align 8
  %15 = alloca ptr, align 8
  %16 = alloca ptr, align 8
  %17 = alloca ptr, align 8
  %18 = alloca ptr, align 8
  %19 = alloca ptr, align 8
  %20 = alloca ptr, align 8
  %21 = alloca i32, align 4
  %22 = alloca i32, align 4
  %23 = alloca i32, align 4
  %24 = alloca ptr, align 8
  store ptr %0, ptr %9, align 8, !tbaa !46
  store ptr %1, ptr %10, align 8, !tbaa !8
  store i32 %2, ptr %11, align 4, !tbaa !23
  store ptr %3, ptr %12, align 8, !tbaa !10
  store ptr %4, ptr %13, align 8, !tbaa !16
  store ptr %5, ptr %14, align 8, !tbaa !44
  store ptr %6, ptr %15, align 8, !tbaa !8
  call void @llvm.lifetime.start.p0(i64 8, ptr %16) #4
  call void @llvm.lifetime.start.p0(i64 8, ptr %17) #4
  call void @llvm.lifetime.start.p0(i64 8, ptr %18) #4
  call void @llvm.lifetime.start.p0(i64 8, ptr %19) #4
  store ptr null, ptr %19, align 8, !tbaa !48
  call void @llvm.lifetime.start.p0(i64 8, ptr %20) #4
  store ptr null, ptr %20, align 8, !tbaa !48
  %25 = load ptr, ptr %9, align 8, !tbaa !46
  %26 = call ptr @PKCS12_SAFEBAG_get0_attr(ptr noundef %25, i32 noundef 156)
  store ptr %26, ptr %18, align 8, !tbaa !50
  %27 = icmp ne ptr %26, null
  br i1 %27, label %28, label %32

28:                                               ; preds = %7
  %29 = load ptr, ptr %18, align 8, !tbaa !50
  %30 = getelementptr inbounds nuw %struct.asn1_type_st, ptr %29, i32 0, i32 1
  %31 = load ptr, ptr %30, align 8, !tbaa !22
  store ptr %31, ptr %19, align 8, !tbaa !48
  br label %32

32:                                               ; preds = %28, %7
  %33 = load ptr, ptr %9, align 8, !tbaa !46
  %34 = call ptr @PKCS12_SAFEBAG_get0_attr(ptr noundef %33, i32 noundef 157)
  store ptr %34, ptr %18, align 8, !tbaa !50
  %35 = icmp ne ptr %34, null
  br i1 %35, label %36, label %40

36:                                               ; preds = %32
  %37 = load ptr, ptr %18, align 8, !tbaa !50
  %38 = getelementptr inbounds nuw %struct.asn1_type_st, ptr %37, i32 0, i32 1
  %39 = load ptr, ptr %38, align 8, !tbaa !22
  store ptr %39, ptr %20, align 8, !tbaa !48
  br label %40

40:                                               ; preds = %36, %32
  %41 = load ptr, ptr %9, align 8, !tbaa !46
  %42 = call i32 @PKCS12_SAFEBAG_get_nid(ptr noundef %41)
  switch i32 %42, label %165 [
    i32 150, label %43
    i32 151, label %63
    i32 152, label %92
    i32 155, label %155
  ]

43:                                               ; preds = %40
  %44 = load ptr, ptr %12, align 8, !tbaa !10
  %45 = icmp eq ptr %44, null
  br i1 %45, label %50, label %46

46:                                               ; preds = %43
  %47 = load ptr, ptr %12, align 8, !tbaa !10
  %48 = load ptr, ptr %47, align 8, !tbaa !20
  %49 = icmp ne ptr %48, null
  br i1 %49, label %50, label %51

50:                                               ; preds = %46, %43
  store i32 1, ptr %8, align 4
  store i32 1, ptr %21, align 4
  br label %167

51:                                               ; preds = %46
  %52 = load ptr, ptr %9, align 8, !tbaa !46
  %53 = call ptr @PKCS12_SAFEBAG_get0_p8inf(ptr noundef %52)
  %54 = load ptr, ptr %14, align 8, !tbaa !44
  %55 = load ptr, ptr %15, align 8, !tbaa !8
  %56 = call ptr @EVP_PKCS82PKEY_ex(ptr noundef %53, ptr noundef %54, ptr noundef %55)
  %57 = load ptr, ptr %12, align 8, !tbaa !10
  store ptr %56, ptr %57, align 8, !tbaa !20
  %58 = load ptr, ptr %12, align 8, !tbaa !10
  %59 = load ptr, ptr %58, align 8, !tbaa !20
  %60 = icmp eq ptr %59, null
  br i1 %60, label %61, label %62

61:                                               ; preds = %51
  store i32 0, ptr %8, align 4
  store i32 1, ptr %21, align 4
  br label %167

62:                                               ; preds = %51
  br label %166

63:                                               ; preds = %40
  %64 = load ptr, ptr %12, align 8, !tbaa !10
  %65 = icmp eq ptr %64, null
  br i1 %65, label %70, label %66

66:                                               ; preds = %63
  %67 = load ptr, ptr %12, align 8, !tbaa !10
  %68 = load ptr, ptr %67, align 8, !tbaa !20
  %69 = icmp ne ptr %68, null
  br i1 %69, label %70, label %71

70:                                               ; preds = %66, %63
  store i32 1, ptr %8, align 4
  store i32 1, ptr %21, align 4
  br label %167

71:                                               ; preds = %66
  %72 = load ptr, ptr %9, align 8, !tbaa !46
  %73 = load ptr, ptr %10, align 8, !tbaa !8
  %74 = load i32, ptr %11, align 4, !tbaa !23
  %75 = load ptr, ptr %14, align 8, !tbaa !44
  %76 = load ptr, ptr %15, align 8, !tbaa !8
  %77 = call ptr @PKCS12_decrypt_skey_ex(ptr noundef %72, ptr noundef %73, i32 noundef %74, ptr noundef %75, ptr noundef %76)
  store ptr %77, ptr %16, align 8, !tbaa !52
  %78 = icmp eq ptr %77, null
  br i1 %78, label %79, label %80

79:                                               ; preds = %71
  store i32 0, ptr %8, align 4
  store i32 1, ptr %21, align 4
  br label %167

80:                                               ; preds = %71
  %81 = load ptr, ptr %16, align 8, !tbaa !52
  %82 = load ptr, ptr %14, align 8, !tbaa !44
  %83 = load ptr, ptr %15, align 8, !tbaa !8
  %84 = call ptr @EVP_PKCS82PKEY_ex(ptr noundef %81, ptr noundef %82, ptr noundef %83)
  %85 = load ptr, ptr %12, align 8, !tbaa !10
  store ptr %84, ptr %85, align 8, !tbaa !20
  %86 = load ptr, ptr %16, align 8, !tbaa !52
  call void @PKCS8_PRIV_KEY_INFO_free(ptr noundef %86)
  %87 = load ptr, ptr %12, align 8, !tbaa !10
  %88 = load ptr, ptr %87, align 8, !tbaa !20
  %89 = icmp ne ptr %88, null
  br i1 %89, label %91, label %90

90:                                               ; preds = %80
  store i32 0, ptr %8, align 4
  store i32 1, ptr %21, align 4
  br label %167

91:                                               ; preds = %80
  br label %166

92:                                               ; preds = %40
  %93 = load ptr, ptr %13, align 8, !tbaa !16
  %94 = icmp eq ptr %93, null
  br i1 %94, label %99, label %95

95:                                               ; preds = %92
  %96 = load ptr, ptr %9, align 8, !tbaa !46
  %97 = call i32 @PKCS12_SAFEBAG_get_bag_nid(ptr noundef %96)
  %98 = icmp ne i32 %97, 158
  br i1 %98, label %99, label %100

99:                                               ; preds = %95, %92
  store i32 1, ptr %8, align 4
  store i32 1, ptr %21, align 4
  br label %167

100:                                              ; preds = %95
  %101 = load ptr, ptr %9, align 8, !tbaa !46
  %102 = load ptr, ptr %14, align 8, !tbaa !44
  %103 = load ptr, ptr %15, align 8, !tbaa !8
  %104 = call ptr @PKCS12_SAFEBAG_get1_cert_ex(ptr noundef %101, ptr noundef %102, ptr noundef %103)
  store ptr %104, ptr %17, align 8, !tbaa !18
  %105 = icmp eq ptr %104, null
  br i1 %105, label %106, label %107

106:                                              ; preds = %100
  store i32 0, ptr %8, align 4
  store i32 1, ptr %21, align 4
  br label %167

107:                                              ; preds = %100
  %108 = load ptr, ptr %20, align 8, !tbaa !48
  %109 = icmp ne ptr %108, null
  br i1 %109, label %110, label %122

110:                                              ; preds = %107
  %111 = load ptr, ptr %17, align 8, !tbaa !18
  %112 = load ptr, ptr %20, align 8, !tbaa !48
  %113 = getelementptr inbounds nuw %struct.asn1_string_st, ptr %112, i32 0, i32 2
  %114 = load ptr, ptr %113, align 8, !tbaa !54
  %115 = load ptr, ptr %20, align 8, !tbaa !48
  %116 = getelementptr inbounds nuw %struct.asn1_string_st, ptr %115, i32 0, i32 0
  %117 = load i32, ptr %116, align 8, !tbaa !56
  %118 = call i32 @X509_keyid_set1(ptr noundef %111, ptr noundef %114, i32 noundef %117)
  %119 = icmp ne i32 %118, 0
  br i1 %119, label %122, label %120

120:                                              ; preds = %110
  %121 = load ptr, ptr %17, align 8, !tbaa !18
  call void @X509_free(ptr noundef %121)
  store i32 0, ptr %8, align 4
  store i32 1, ptr %21, align 4
  br label %167

122:                                              ; preds = %110, %107
  %123 = load ptr, ptr %19, align 8, !tbaa !48
  %124 = icmp ne ptr %123, null
  br i1 %124, label %125, label %145

125:                                              ; preds = %122
  call void @llvm.lifetime.start.p0(i64 4, ptr %22) #4
  call void @llvm.lifetime.start.p0(i64 4, ptr %23) #4
  call void @llvm.lifetime.start.p0(i64 8, ptr %24) #4
  %126 = load ptr, ptr %19, align 8, !tbaa !48
  %127 = call i32 @ASN1_STRING_to_UTF8(ptr noundef %24, ptr noundef %126)
  store i32 %127, ptr %22, align 4, !tbaa !23
  %128 = load i32, ptr %22, align 4, !tbaa !23
  %129 = icmp sge i32 %128, 0
  br i1 %129, label %130, label %141

130:                                              ; preds = %125
  %131 = load ptr, ptr %17, align 8, !tbaa !18
  %132 = load ptr, ptr %24, align 8, !tbaa !8
  %133 = load i32, ptr %22, align 4, !tbaa !23
  %134 = call i32 @X509_alias_set1(ptr noundef %131, ptr noundef %132, i32 noundef %133)
  store i32 %134, ptr %23, align 4, !tbaa !23
  %135 = load ptr, ptr %24, align 8, !tbaa !8
  call void @CRYPTO_free(ptr noundef %135, ptr noundef @.str, i32 noundef 245)
  %136 = load i32, ptr %23, align 4, !tbaa !23
  %137 = icmp ne i32 %136, 0
  br i1 %137, label %140, label %138

138:                                              ; preds = %130
  %139 = load ptr, ptr %17, align 8, !tbaa !18
  call void @X509_free(ptr noundef %139)
  store i32 0, ptr %8, align 4
  store i32 1, ptr %21, align 4
  br label %142

140:                                              ; preds = %130
  br label %141

141:                                              ; preds = %140, %125
  store i32 0, ptr %21, align 4
  br label %142

142:                                              ; preds = %141, %138
  call void @llvm.lifetime.end.p0(i64 8, ptr %24) #4
  call void @llvm.lifetime.end.p0(i64 4, ptr %23) #4
  call void @llvm.lifetime.end.p0(i64 4, ptr %22) #4
  %143 = load i32, ptr %21, align 4
  switch i32 %143, label %167 [
    i32 0, label %144
  ]

144:                                              ; preds = %142
  br label %145

145:                                              ; preds = %144, %122
  %146 = load ptr, ptr %13, align 8, !tbaa !16
  %147 = call ptr @ossl_check_X509_sk_type(ptr noundef %146)
  %148 = load ptr, ptr %17, align 8, !tbaa !18
  %149 = call ptr @ossl_check_X509_type(ptr noundef %148)
  %150 = call i32 @OPENSSL_sk_push(ptr noundef %147, ptr noundef %149)
  %151 = icmp ne i32 %150, 0
  br i1 %151, label %154, label %152

152:                                              ; preds = %145
  %153 = load ptr, ptr %17, align 8, !tbaa !18
  call void @X509_free(ptr noundef %153)
  store i32 0, ptr %8, align 4
  store i32 1, ptr %21, align 4
  br label %167

154:                                              ; preds = %145
  br label %166

155:                                              ; preds = %40
  %156 = load ptr, ptr %9, align 8, !tbaa !46
  %157 = call ptr @PKCS12_SAFEBAG_get0_safes(ptr noundef %156)
  %158 = load ptr, ptr %10, align 8, !tbaa !8
  %159 = load i32, ptr %11, align 4, !tbaa !23
  %160 = load ptr, ptr %12, align 8, !tbaa !10
  %161 = load ptr, ptr %13, align 8, !tbaa !16
  %162 = load ptr, ptr %14, align 8, !tbaa !44
  %163 = load ptr, ptr %15, align 8, !tbaa !8
  %164 = call i32 @parse_bags(ptr noundef %157, ptr noundef %158, i32 noundef %159, ptr noundef %160, ptr noundef %161, ptr noundef %162, ptr noundef %163)
  store i32 %164, ptr %8, align 4
  store i32 1, ptr %21, align 4
  br label %167

165:                                              ; preds = %40
  store i32 1, ptr %8, align 4
  store i32 1, ptr %21, align 4
  br label %167

166:                                              ; preds = %154, %91, %62
  store i32 1, ptr %8, align 4
  store i32 1, ptr %21, align 4
  br label %167

167:                                              ; preds = %166, %165, %155, %152, %142, %120, %106, %99, %90, %79, %70, %61, %50
  call void @llvm.lifetime.end.p0(i64 8, ptr %20) #4
  call void @llvm.lifetime.end.p0(i64 8, ptr %19) #4
  call void @llvm.lifetime.end.p0(i64 8, ptr %18) #4
  call void @llvm.lifetime.end.p0(i64 8, ptr %17) #4
  call void @llvm.lifetime.end.p0(i64 8, ptr %16) #4
  %168 = load i32, ptr %8, align 4
  ret i32 %168
}

; Function Attrs: inlinehint nounwind uwtable
define internal ptr @ossl_check_const_PKCS12_SAFEBAG_sk_type(ptr noundef %0) #3 {
  %2 = alloca ptr, align 8
  store ptr %0, ptr %2, align 8, !tbaa !37
  %3 = load ptr, ptr %2, align 8, !tbaa !37
  ret ptr %3
}

; Function Attrs: nounwind uwtable
define internal i32 @parse_bags(ptr noundef %0, ptr noundef %1, i32 noundef %2, ptr noundef %3, ptr noundef %4, ptr noundef %5, ptr noundef %6) #0 {
  %8 = alloca i32, align 4
  %9 = alloca ptr, align 8
  %10 = alloca ptr, align 8
  %11 = alloca i32, align 4
  %12 = alloca ptr, align 8
  %13 = alloca ptr, align 8
  %14 = alloca ptr, align 8
  %15 = alloca ptr, align 8
  %16 = alloca i32, align 4
  %17 = alloca i32, align 4
  store ptr %0, ptr %9, align 8, !tbaa !37
  store ptr %1, ptr %10, align 8, !tbaa !8
  store i32 %2, ptr %11, align 4, !tbaa !23
  store ptr %3, ptr %12, align 8, !tbaa !10
  store ptr %4, ptr %13, align 8, !tbaa !16
  store ptr %5, ptr %14, align 8, !tbaa !44
  store ptr %6, ptr %15, align 8, !tbaa !8
  call void @llvm.lifetime.start.p0(i64 4, ptr %16) #4
  store i32 0, ptr %16, align 4, !tbaa !23
  br label %18

18:                                               ; preds = %39, %7
  %19 = load i32, ptr %16, align 4, !tbaa !23
  %20 = load ptr, ptr %9, align 8, !tbaa !37
  %21 = call ptr @ossl_check_const_PKCS12_SAFEBAG_sk_type(ptr noundef %20)
  %22 = call i32 @OPENSSL_sk_num(ptr noundef %21)
  %23 = icmp slt i32 %19, %22
  br i1 %23, label %24, label %42

24:                                               ; preds = %18
  %25 = load ptr, ptr %9, align 8, !tbaa !37
  %26 = call ptr @ossl_check_const_PKCS12_SAFEBAG_sk_type(ptr noundef %25)
  %27 = load i32, ptr %16, align 4, !tbaa !23
  %28 = call ptr @OPENSSL_sk_value(ptr noundef %26, i32 noundef %27)
  %29 = load ptr, ptr %10, align 8, !tbaa !8
  %30 = load i32, ptr %11, align 4, !tbaa !23
  %31 = load ptr, ptr %12, align 8, !tbaa !10
  %32 = load ptr, ptr %13, align 8, !tbaa !16
  %33 = load ptr, ptr %14, align 8, !tbaa !44
  %34 = load ptr, ptr %15, align 8, !tbaa !8
  %35 = call i32 @parse_bag(ptr noundef %28, ptr noundef %29, i32 noundef %30, ptr noundef %31, ptr noundef %32, ptr noundef %33, ptr noundef %34)
  %36 = icmp ne i32 %35, 0
  br i1 %36, label %38, label %37

37:                                               ; preds = %24
  store i32 0, ptr %8, align 4
  store i32 1, ptr %17, align 4
  br label %43

38:                                               ; preds = %24
  br label %39

39:                                               ; preds = %38
  %40 = load i32, ptr %16, align 4, !tbaa !23
  %41 = add nsw i32 %40, 1
  store i32 %41, ptr %16, align 4, !tbaa !23
  br label %18, !llvm.loop !45

42:                                               ; preds = %18
  store i32 1, ptr %8, align 4
  store i32 1, ptr %17, align 4
  br label %43

43:                                               ; preds = %42, %37
  call void @llvm.lifetime.end.p0(i64 4, ptr %16) #4
  %44 = load i32, ptr %8, align 4
  ret i32 %44
}