; Function Attrs: nounwind uwtable
define internal fastcc range(i32 0, 2) i32 @parse_bags(ptr noundef %0, ptr noundef %1, ptr noundef captures(address_is_null) %2, ptr noundef %3, ptr noundef %4, ptr noundef %5) unnamed_addr #0 {
  %7 = alloca ptr, align 8
  %8 = tail call i32 @OPENSSL_sk_num(ptr noundef %0) #3
  %9 = icmp sgt i32 %8, 0
  br i1 %9, label %.lr.ph, label %parse_bag.exit.thread15

.lr.ph:                                           ; preds = %6
  %10 = icmp eq ptr %3, null
  %11 = icmp eq ptr %2, null
  br label %12

12:                                               ; preds = %.lr.ph, %parse_bag.exit.thread
  %.020 = phi i32 [ 0, %.lr.ph ], [ %68, %parse_bag.exit.thread ]
  %13 = call ptr @OPENSSL_sk_value(ptr noundef %0, i32 noundef %.020) #3
  %14 = call ptr @PKCS12_SAFEBAG_get0_attr(ptr noundef %13, i32 noundef 156) #3
  %.not.i = icmp eq ptr %14, null
  br i1 %.not.i, label %18, label %15

15:                                               ; preds = %12
  %16 = getelementptr inbounds nuw i8, ptr %14, i64 8
  %17 = load ptr, ptr %16, align 8, !tbaa !10
  br label %18

18:                                               ; preds = %15, %12
  %.055.i = phi ptr [ %17, %15 ], [ null, %12 ]
  %19 = call ptr @PKCS12_SAFEBAG_get0_attr(ptr noundef %13, i32 noundef 157) #3
  %.not63.i = icmp eq ptr %19, null
  br i1 %.not63.i, label %23, label %20

20:                                               ; preds = %18
  %21 = getelementptr inbounds nuw i8, ptr %19, i64 8
  %22 = load ptr, ptr %21, align 8, !tbaa !10
  br label %23

23:                                               ; preds = %20, %18
  %.054.i = phi ptr [ %22, %20 ], [ null, %18 ]
  %24 = call i32 @PKCS12_SAFEBAG_get_nid(ptr noundef %13) #3
  switch i32 %24, label %parse_bag.exit.thread [
    i32 150, label %25
    i32 151, label %32
    i32 152, label %41
    i32 155, label %parse_bag.exit
  ]

25:                                               ; preds = %23
  br i1 %11, label %parse_bag.exit.thread, label %26

26:                                               ; preds = %25
  %27 = load ptr, ptr %2, align 8, !tbaa !3
  %.not72.i = icmp eq ptr %27, null
  br i1 %.not72.i, label %28, label %parse_bag.exit.thread

28:                                               ; preds = %26
  %29 = call ptr @PKCS12_SAFEBAG_get0_p8inf(ptr noundef %13) #3
  %30 = call ptr @EVP_PKCS82PKEY_ex(ptr noundef %29, ptr noundef %4, ptr noundef %5) #3
  store ptr %30, ptr %2, align 8, !tbaa !3
  %31 = icmp eq ptr %30, null
  br i1 %31, label %parse_bag.exit.thread15, label %parse_bag.exit.thread

32:                                               ; preds = %23
  br i1 %11, label %parse_bag.exit.thread, label %33

33:                                               ; preds = %32
  %34 = load ptr, ptr %2, align 8, !tbaa !3
  %.not70.i = icmp eq ptr %34, null
  br i1 %.not70.i, label %35, label %parse_bag.exit.thread

35:                                               ; preds = %33
  %36 = call ptr @PKCS12_decrypt_skey_ex(ptr noundef %13, ptr noundef %1, i32 noundef -1, ptr noundef %4, ptr noundef %5) #3
  %37 = icmp eq ptr %36, null
  br i1 %37, label %parse_bag.exit.thread15, label %38

38:                                               ; preds = %35
  %39 = call ptr @EVP_PKCS82PKEY_ex(ptr noundef nonnull %36, ptr noundef %4, ptr noundef %5) #3
  store ptr %39, ptr %2, align 8, !tbaa !3
  call void @PKCS8_PRIV_KEY_INFO_free(ptr noundef nonnull %36) #3
  %40 = load ptr, ptr %2, align 8, !tbaa !3
  %.not71.i = icmp eq ptr %40, null
  br i1 %.not71.i, label %parse_bag.exit.thread15, label %parse_bag.exit.thread

41:                                               ; preds = %23
  br i1 %10, label %parse_bag.exit.thread, label %42

42:                                               ; preds = %41
  %43 = call i32 @PKCS12_SAFEBAG_get_bag_nid(ptr noundef %13) #3
  %.not64.i = icmp eq i32 %43, 158
  br i1 %.not64.i, label %44, label %parse_bag.exit.thread

44:                                               ; preds = %42
  %45 = call ptr @PKCS12_SAFEBAG_get1_cert_ex(ptr noundef %13, ptr noundef %4, ptr noundef %5) #3
  %46 = icmp eq ptr %45, null
  br i1 %46, label %parse_bag.exit.thread15, label %47

47:                                               ; preds = %44
  %.not65.i = icmp eq ptr %.054.i, null
  br i1 %.not65.i, label %54, label %48

48:                                               ; preds = %47
  %49 = getelementptr inbounds nuw i8, ptr %.054.i, i64 8
  %50 = load ptr, ptr %49, align 8, !tbaa !24
  %51 = load i32, ptr %.054.i, align 8, !tbaa !26
  %52 = call i32 @X509_keyid_set1(ptr noundef nonnull %45, ptr noundef %50, i32 noundef %51) #3
  %.not66.i = icmp eq i32 %52, 0
  br i1 %.not66.i, label %53, label %54

53:                                               ; preds = %48
  call void @X509_free(ptr noundef nonnull %45) #3
  br label %parse_bag.exit.thread15

54:                                               ; preds = %48, %47
  %.not67.i = icmp eq ptr %.055.i, null
  br i1 %.not67.i, label %63, label %55

55:                                               ; preds = %54
  call void @llvm.lifetime.start.p0(i64 8, ptr nonnull %7) #3
  %56 = call i32 @ASN1_STRING_to_UTF8(ptr noundef nonnull %7, ptr noundef nonnull %.055.i) #3
  %57 = icmp sgt i32 %56, -1
  br i1 %57, label %58, label %62

58:                                               ; preds = %55
  %59 = load ptr, ptr %7, align 8, !tbaa !27
  %60 = call i32 @X509_alias_set1(ptr noundef nonnull %45, ptr noundef %59, i32 noundef %56) #3
  %61 = load ptr, ptr %7, align 8, !tbaa !27
  call void @CRYPTO_free(ptr noundef %61, ptr noundef nonnull @.str, i32 noundef 245) #3
  %.not68.i = icmp eq i32 %60, 0
  br i1 %.not68.i, label %.critedge.i, label %62

.critedge.i:                                      ; preds = %58
  call void @X509_free(ptr noundef nonnull %45) #3
  call void @llvm.lifetime.end.p0(i64 8, ptr nonnull %7) #3
  br label %parse_bag.exit.thread15

62:                                               ; preds = %58, %55
  call void @llvm.lifetime.end.p0(i64 8, ptr nonnull %7) #3
  br label %63

63:                                               ; preds = %62, %54
  %64 = call i32 @OPENSSL_sk_push(ptr noundef nonnull %3, ptr noundef nonnull %45) #3
  %.not69.i = icmp eq i32 %64, 0
  br i1 %.not69.i, label %65, label %parse_bag.exit.thread

65:                                               ; preds = %63
  call void @X509_free(ptr noundef nonnull %45) #3
  br label %parse_bag.exit.thread15

parse_bag.exit:                                   ; preds = %23
  %66 = call ptr @PKCS12_SAFEBAG_get0_safes(ptr noundef %13) #3
  %67 = call fastcc i32 @parse_bags(ptr noundef %66, ptr noundef %1, ptr noundef %2, ptr noundef %3, ptr noundef %4, ptr noundef %5)
  %.not = icmp eq i32 %67, 0
  br i1 %.not, label %parse_bag.exit.thread15, label %parse_bag.exit.thread

parse_bag.exit.thread:                            ; preds = %28, %38, %63, %23, %41, %42, %32, %33, %25, %26, %parse_bag.exit
  %68 = add nuw nsw i32 %.020, 1
  %69 = call i32 @OPENSSL_sk_num(ptr noundef %0) #3
  %70 = icmp slt i32 %68, %69
  br i1 %70, label %12, label %parse_bag.exit.thread15, !llvm.loop !28

parse_bag.exit.thread15:                          ; preds = %parse_bag.exit, %parse_bag.exit.thread, %28, %35, %38, %44, %6, %.critedge.i, %53, %65
  %.011 = phi i32 [ 0, %65 ], [ 0, %53 ], [ 0, %.critedge.i ], [ 1, %6 ], [ 0, %parse_bag.exit ], [ 1, %parse_bag.exit.thread ], [ 0, %28 ], [ 0, %35 ], [ 0, %38 ], [ 0, %44 ]
  ret i32 %.011
}